; Function Attrs: mustprogress uwtable
define noundef zeroext i1 @_ZNK3gmx18FileNameOptionInfo11isValidTypeEi(ptr nocapture noundef nonnull readonly align 8 dereferenceable(16) %0, i32 noundef %1) local_unnamed_addr #0 align 2 {
  %3 = getelementptr inbounds i8, ptr %0, i64 8
  %4 = load ptr, ptr %3, align 8
  %5 = getelementptr inbounds i8, ptr %4, i64 224
  %6 = load i32, ptr %5, align 8
  %7 = icmp sgt i32 %6, -1
  br i1 %7, label %8, label %_ZN3gmx12_GLOBAL__N_115FileTypeHandlerC2Ei.exit.thread.i

8:                                                ; preds = %2
  %9 = tail call noundef i32 @_Z17ftp2generic_counti(i32 noundef %6)
  %10 = icmp sgt i32 %9, 0
  br i1 %10, label %_ZN3gmx12_GLOBAL__N_115FileTypeHandlerC2Ei.exit.i, label %11

11:                                               ; preds = %8
  %12 = tail call noundef ptr @_Z16ftp2ext_with_doti(i32 noundef %6)
  br label %_ZN3gmx12_GLOBAL__N_115FileTypeHandlerC2Ei.exit.thread.i

_ZN3gmx12_GLOBAL__N_115FileTypeHandlerC2Ei.exit.i: ; preds = %8
  %13 = tail call noundef ptr @_Z16ftp2generic_listi(i32 noundef %6)
  %.not.i1.i = icmp eq ptr %13, null
  br i1 %.not.i1.i, label %_ZN3gmx12_GLOBAL__N_115FileTypeHandlerC2Ei.exit.thread.i, label %.lr.ph.preheader.i.i

.lr.ph.preheader.i.i:                             ; preds = %_ZN3gmx12_GLOBAL__N_115FileTypeHandlerC2Ei.exit.i
  %wide.trip.count.i.i = zext nneg i32 %9 to i64
  br label %.lr.ph.i.i

.lr.ph.i.i:                                       ; preds = %.lr.ph.i.i, %.lr.ph.preheader.i.i
  %indvars.iv.i.i = phi i64 [ 0, %.lr.ph.preheader.i.i ], [ %indvars.iv.next.i.i, %.lr.ph.i.i ]
  %14 = getelementptr inbounds i32, ptr %13, i64 %indvars.iv.i.i
  %15 = load i32, ptr %14, align 4
  %16 = icmp eq i32 %15, %1
  %indvars.iv.next.i.i = add nuw nsw i64 %indvars.iv.i.i, 1
  %exitcond.not.i.i = icmp eq i64 %indvars.iv.next.i.i, %wide.trip.count.i.i
  %or.cond = select i1 %16, i1 true, i1 %exitcond.not.i.i
  br i1 %or.cond, label %_ZNK3gmx21FileNameOptionStorage11isValidTypeEi.exit, label %.lr.ph.i.i, !llvm.loop !4

_ZN3gmx12_GLOBAL__N_115FileTypeHandlerC2Ei.exit.thread.i: ; preds = %_ZN3gmx12_GLOBAL__N_115FileTypeHandlerC2Ei.exit.i, %11, %2
  %17 = icmp eq i32 %6, %1
  br label %_ZNK3gmx21FileNameOptionStorage11isValidTypeEi.exit

_ZNK3gmx21FileNameOptionStorage11isValidTypeEi.exit: ; preds = %.lr.ph.i.i, %_ZN3gmx12_GLOBAL__N_115FileTypeHandlerC2Ei.exit.thread.i
  %.06.i.i = phi i1 [ %17, %_ZN3gmx12_GLOBAL__N_115FileTypeHandlerC2Ei.exit.thread.i ], [ %16, %.lr.ph.i.i ]
  ret i1 %.06.i.i
}